; Function Attrs: mustprogress nofree norecurse nosync nounwind willreturn memory(read, inaccessiblemem: none) uwtable
define dso_local i64 @hdr_count_at_value(ptr nocapture noundef readonly %h, i64 noundef %value) local_unnamed_addr #13 {
entry:
  %sub_bucket_mask.i.i = getelementptr inbounds i8, ptr %h, i64 32
  %0 = load i64, ptr %sub_bucket_mask.i.i, align 8
  %or.i.i = or i64 %0, %value
  %1 = tail call i64 @llvm.ctlz.i64(i64 %or.i.i, i1 true), !range !5
  %cast.i.i.i = trunc i64 %1 to i32
  %unit_magnitude.i.i = getelementptr inbounds i8, ptr %h, i64 16
  %2 = load i32, ptr %unit_magnitude.i.i, align 8
  %sub_bucket_half_count_magnitude.i.i = getelementptr inbounds i8, ptr %h, i64 24
  %3 = load i32, ptr %sub_bucket_half_count_magnitude.i.i, align 8
  %4 = add i32 %3, %2
  %5 = add i32 %4, %cast.i.i.i
  %reass.sub.i = add i32 %2, 63
  %add.i.i = sub i32 %reass.sub.i, %5
  %sh_prom.i.i = zext nneg i32 %add.i.i to i64
  %shr.i.i = ashr i64 %value, %sh_prom.i.i
  %conv.i.i = trunc i64 %shr.i.i to i32
  %6 = getelementptr i8, ptr %h, i64 28
  %h.val5.i = load i32, ptr %6, align 4
  %add.i6.i = sub i32 64, %5
  %shl.i.i = shl i32 %add.i6.i, %3
  %sub.i.i = sub i32 %shl.i.i, %h.val5.i
  %add1.i.i = add i32 %sub.i.i, %conv.i.i
  %normalizing_index_offset.i.i = getelementptr inbounds i8, ptr %h, i64 64
  %7 = load i32, ptr %normalizing_index_offset.i.i, align 8
  %cmp.i.i = icmp eq i32 %7, 0
  br i1 %cmp.i.i, label %counts_get_normalised.exit, label %if.end.i.i

if.end.i.i:                                       ; preds = %entry
  %sub.i.i2 = sub nsw i32 %add1.i.i, %7
  %cmp2.i.i = icmp slt i32 %sub.i.i2, 0
  %counts_len.i.i = getelementptr inbounds i8, ptr %h, i64 80
  %8 = load i32, ptr %counts_len.i.i, align 8
  %cmp5.not.i.i = icmp slt i32 %sub.i.i2, %8
  %sub8.i.i = sub nsw i32 0, %8
  %spec.select.i.i = select i1 %cmp5.not.i.i, i32 0, i32 %sub8.i.i
  %adjustment.0.i.i = select i1 %cmp2.i.i, i32 %8, i32 %spec.select.i.i
  %add.i.i3 = add nsw i32 %adjustment.0.i.i, %sub.i.i2
  br label %counts_get_normalised.exit

counts_get_normalised.exit:                       ; preds = %entry, %if.end.i.i
  %retval.0.i.i = phi i32 [ %add.i.i3, %if.end.i.i ], [ %add1.i.i, %entry ]
  %9 = getelementptr i8, ptr %h, i64 96
  %h.val.i = load ptr, ptr %9, align 8
  %idxprom.i.i = sext i32 %retval.0.i.i to i64
  %arrayidx.i.i = getelementptr inbounds i64, ptr %h.val.i, i64 %idxprom.i.i
  %10 = load i64, ptr %arrayidx.i.i, align 8
  ret i64 %10
}